target datalayout = "e-m:e-p270:32:32-p271:32:32-p272:64:64-i64:64-i128:128-f80:128-n8:16:32:64-S128"
target triple = "x86_64-pc-linux-gnu"

%"class.Imath_2_5::Vec2.6" = type { float, float }
%"class.cv::ExrDecoder" = type { %"class.cv::BaseImageDecoder", ptr, i32, %"class.Imath_2_5::Box", i8, ptr, ptr, ptr, ptr, %"struct.Imf_2_5::Chromaticities", i32, i8, i8, i8, i8 }
%"class.cv::BaseImageDecoder" = type { ptr, i32, i32, i32, i32, %"class.std::__cxx11::basic_string", %"class.std::__cxx11::basic_string", %"class.cv::Mat", i8, i8, [6 x i8], %"class.cv::ExifReader" }
%"class.std::__cxx11::basic_string" = type { %"struct.std::__cxx11::basic_string<char>::_Alloc_hider", i64, %union.anon }
%"struct.std::__cxx11::basic_string<char>::_Alloc_hider" = type { ptr }
%union.anon = type { i64, [8 x i8] }
%"class.cv::Mat" = type { i32, i32, i32, i32, ptr, ptr, ptr, ptr, ptr, ptr, %"struct.cv::MatSize", %"struct.cv::MatStep" }
%"struct.cv::MatSize" = type { ptr }
%"struct.cv::MatStep" = type { ptr, [2 x i64] }
%"class.cv::ExifReader" = type <{ %"class.std::vector", %"class.std::map", i32, [4 x i8] }>
%"class.std::vector" = type { %"struct.std::_Vector_base" }
%"struct.std::_Vector_base" = type { %"struct.std::_Vector_base<unsigned char, std::allocator<unsigned char>>::_Vector_impl" }
%"struct.std::_Vector_base<unsigned char, std::allocator<unsigned char>>::_Vector_impl" = type { %"struct.std::_Vector_base<unsigned char, std::allocator<unsigned char>>::_Vector_impl_data" }
%"struct.std::_Vector_base<unsigned char, std::allocator<unsigned char>>::_Vector_impl_data" = type { ptr, ptr, ptr }
%"class.std::map" = type { %"class.std::_Rb_tree" }
%"class.std::_Rb_tree" = type { %"struct.std::_Rb_tree<int, std::pair<const int, cv::ExifEntry_t>, std::_Select1st<std::pair<const int, cv::ExifEntry_t>>, std::less<int>>::_Rb_tree_impl" }
%"struct.std::_Rb_tree<int, std::pair<const int, cv::ExifEntry_t>, std::_Select1st<std::pair<const int, cv::ExifEntry_t>>, std::less<int>>::_Rb_tree_impl" = type { %"struct.std::_Rb_tree_key_compare", %"struct.std::_Rb_tree_header" }
%"struct.std::_Rb_tree_key_compare" = type { %"struct.std::less" }
%"struct.std::less" = type { i8 }
%"struct.std::_Rb_tree_header" = type { %"struct.std::_Rb_tree_node_base", i64 }
%"struct.std::_Rb_tree_node_base" = type { i32, ptr, ptr, ptr }
%"class.Imath_2_5::Box" = type { %"class.Imath_2_5::Vec2", %"class.Imath_2_5::Vec2" }
%"class.Imath_2_5::Vec2" = type { i32, i32 }
%"struct.Imf_2_5::Chromaticities" = type { %"class.Imath_2_5::Vec2.6", %"class.Imath_2_5::Vec2.6", %"class.Imath_2_5::Vec2.6", %"class.Imath_2_5::Vec2.6" }

; Function Attrs: mustprogress nounwind uwtable
define hidden void @_ZN2cv10ExrDecoder8UpSampleEPhiiii(ptr noundef nonnull align 8 dereferenceable(376) %0, ptr noundef %1, i32 noundef %2, i32 noundef %3, i32 noundef %4, i32 noundef %5) #5 align 2 {
  %7 = alloca ptr, align 8
  %8 = alloca ptr, align 8
  %9 = alloca i32, align 4
  %10 = alloca i32, align 4
  %11 = alloca i32, align 4
  %12 = alloca i32, align 4
  %13 = alloca i32, align 4
  %14 = alloca i32, align 4
  %15 = alloca i32, align 4
  %16 = alloca i32, align 4
  %17 = alloca i32, align 4
  %18 = alloca i32, align 4
  store ptr %0, ptr %7, align 8
  store ptr %1, ptr %8, align 8
  store i32 %2, ptr %9, align 4
  store i32 %3, ptr %10, align 4
  store i32 %4, ptr %11, align 4
  store i32 %5, ptr %12, align 4
  %19 = load ptr, ptr %7, align 8
  %20 = getelementptr inbounds %"class.cv::BaseImageDecoder", ptr %19, i32 0, i32 2
  %21 = load i32, ptr %20, align 4
  %22 = sub nsw i32 %21, 1
  %23 = load i32, ptr %12, align 4
  %24 = sdiv i32 %22, %23
  store i32 %24, ptr %13, align 4
  %25 = getelementptr inbounds %"class.cv::BaseImageDecoder", ptr %19, i32 0, i32 2
  %26 = load i32, ptr %25, align 4
  %27 = load i32, ptr %12, align 4
  %28 = sub nsw i32 %26, %27
  store i32 %28, ptr %14, align 4
  br label %29

29:                                               ; preds = %158, %6
  %30 = load i32, ptr %13, align 4
  %31 = icmp sge i32 %30, 0
  br i1 %31, label %32, label %164

32:                                               ; preds = %29
  %33 = getelementptr inbounds %"class.cv::BaseImageDecoder", ptr %19, i32 0, i32 1
  %34 = load i32, ptr %33, align 8
  %35 = sub nsw i32 %34, 1
  %36 = load i32, ptr %11, align 4
  %37 = sdiv i32 %35, %36
  store i32 %37, ptr %15, align 4
  %38 = getelementptr inbounds %"class.cv::BaseImageDecoder", ptr %19, i32 0, i32 1
  %39 = load i32, ptr %38, align 8
  %40 = load i32, ptr %11, align 4
  %41 = sub nsw i32 %39, %40
  store i32 %41, ptr %16, align 4
  br label %42

42:                                               ; preds = %151, %32
  %43 = load i32, ptr %15, align 4
  %44 = icmp sge i32 %43, 0
  br i1 %44, label %45, label %157

45:                                               ; preds = %42
  store i32 0, ptr %17, align 4
  br label %46

46:                                               ; preds = %147, %45
  %47 = load i32, ptr %17, align 4
  %48 = load i32, ptr %12, align 4
  %49 = icmp slt i32 %47, %48
  br i1 %49, label %50, label %150

50:                                               ; preds = %46
  store i32 0, ptr %18, align 4
  br label %51

51:                                               ; preds = %143, %50
  %52 = load i32, ptr %18, align 4
  %53 = load i32, ptr %11, align 4
  %54 = icmp slt i32 %52, %53
  br i1 %54, label %55, label %146

55:                                               ; preds = %51
  %56 = getelementptr inbounds %"class.cv::ExrDecoder", ptr %19, i32 0, i32 11
  %57 = load i8, ptr %56, align 4
  %58 = trunc i8 %57 to i1
  br i1 %58, label %85, label %59

59:                                               ; preds = %55
  %60 = load ptr, ptr %8, align 8
  %61 = load i32, ptr %13, align 4
  %62 = load i32, ptr %10, align 4
  %63 = mul nsw i32 %61, %62
  %64 = load i32, ptr %15, align 4
  %65 = load i32, ptr %9, align 4
  %66 = mul nsw i32 %64, %65
  %67 = add nsw i32 %63, %66
  %68 = sext i32 %67 to i64
  %69 = getelementptr inbounds i8, ptr %60, i64 %68
  %70 = load i8, ptr %69, align 1
  %71 = load ptr, ptr %8, align 8
  %72 = load i32, ptr %14, align 4
  %73 = load i32, ptr %17, align 4
  %74 = add nsw i32 %72, %73
  %75 = load i32, ptr %10, align 4
  %76 = mul nsw i32 %74, %75
  %77 = load i32, ptr %16, align 4
  %78 = load i32, ptr %18, align 4
  %79 = add nsw i32 %77, %78
  %80 = load i32, ptr %9, align 4
  %81 = mul nsw i32 %79, %80
  %82 = add nsw i32 %76, %81
  %83 = sext i32 %82 to i64
  %84 = getelementptr inbounds i8, ptr %71, i64 %83
  store i8 %70, ptr %84, align 1
  br label %142

85:                                               ; preds = %55
  %86 = getelementptr inbounds %"class.cv::ExrDecoder", ptr %19, i32 0, i32 2
  %87 = load i32, ptr %86, align 8
  %88 = icmp eq i32 %87, 2
  br i1 %88, label %89, label %115

89:                                               ; preds = %85
  %90 = load ptr, ptr %8, align 8
  %91 = load i32, ptr %13, align 4
  %92 = load i32, ptr %10, align 4
  %93 = mul nsw i32 %91, %92
  %94 = load i32, ptr %15, align 4
  %95 = load i32, ptr %9, align 4
  %96 = mul nsw i32 %94, %95
  %97 = add nsw i32 %93, %96
  %98 = sext i32 %97 to i64
  %99 = getelementptr inbounds float, ptr %90, i64 %98
  %100 = load float, ptr %99, align 4
  %101 = load ptr, ptr %8, align 8
  %102 = load i32, ptr %14, align 4
  %103 = load i32, ptr %17, align 4
  %104 = add nsw i32 %102, %103
  %105 = load i32, ptr %10, align 4
  %106 = mul nsw i32 %104, %105
  %107 = load i32, ptr %16, align 4
  %108 = load i32, ptr %18, align 4
  %109 = add nsw i32 %107, %108
  %110 = load i32, ptr %9, align 4
  %111 = mul nsw i32 %109, %110
  %112 = add nsw i32 %106, %111
  %113 = sext i32 %112 to i64
  %114 = getelementptr inbounds float, ptr %101, i64 %113
  store float %100, ptr %114, align 4
  br label %141

115:                                              ; preds = %85
  %116 = load ptr, ptr %8, align 8
  %117 = load i32, ptr %13, align 4
  %118 = load i32, ptr %10, align 4
  %119 = mul nsw i32 %117, %118
  %120 = load i32, ptr %15, align 4
  %121 = load i32, ptr %9, align 4
  %122 = mul nsw i32 %120, %121
  %123 = add nsw i32 %119, %122
  %124 = sext i32 %123 to i64
  %125 = getelementptr inbounds i32, ptr %116, i64 %124
  %126 = load i32, ptr %125, align 4
  %127 = load ptr, ptr %8, align 8
  %128 = load i32, ptr %14, align 4
  %129 = load i32, ptr %17, align 4
  %130 = add nsw i32 %128, %129
  %131 = load i32, ptr %10, align 4
  %132 = mul nsw i32 %130, %131
  %133 = load i32, ptr %16, align 4
  %134 = load i32, ptr %18, align 4
  %135 = add nsw i32 %133, %134
  %136 = load i32, ptr %9, align 4
  %137 = mul nsw i32 %135, %136
  %138 = add nsw i32 %132, %137
  %139 = sext i32 %138 to i64
  %140 = getelementptr inbounds i32, ptr %127, i64 %139
  store i32 %126, ptr %140, align 4
  br label %141

141:                                              ; preds = %115, %89
  br label %142

142:                                              ; preds = %141, %59
  br label %143

143:                                              ; preds = %142
  %144 = load i32, ptr %18, align 4
  %145 = add nsw i32 %144, 1
  store i32 %145, ptr %18, align 4
  br label %51, !llvm.loop !10

146:                                              ; preds = %51
  br label %147

147:                                              ; preds = %146
  %148 = load i32, ptr %17, align 4
  %149 = add nsw i32 %148, 1
  store i32 %149, ptr %17, align 4
  br label %46, !llvm.loop !11

150:                                              ; preds = %46
  br label %151

151:                                              ; preds = %150
  %152 = load i32, ptr %15, align 4
  %153 = add nsw i32 %152, -1
  store i32 %153, ptr %15, align 4
  %154 = load i32, ptr %11, align 4
  %155 = load i32, ptr %16, align 4
  %156 = sub nsw i32 %155, %154
  store i32 %156, ptr %16, align 4
  br label %42, !llvm.loop !12

157:                                              ; preds = %42
  br label %158

158:                                              ; preds = %157
  %159 = load i32, ptr %13, align 4
  %160 = add nsw i32 %159, -1
  store i32 %160, ptr %13, align 4
  %161 = load i32, ptr %12, align 4
  %162 = load i32, ptr %14, align 4
  %163 = sub nsw i32 %162, %161
  store i32 %163, ptr %14, align 4
  br label %29, !llvm.loop !13

164:                                              ; preds = %29
  ret void
}