; Function Attrs: mustprogress nofree norecurse nosync nounwind memory(argmem: readwrite) uwtable
define hidden void @_ZN2cv10ExrDecoder8UpSampleEPhiiii(ptr nocapture noundef nonnull readonly align 8 dereferenceable(376) %0, ptr nocapture noundef %1, i32 noundef %2, i32 noundef %3, i32 noundef %4, i32 noundef %5) local_unnamed_addr #12 align 2 {
  %7 = getelementptr inbounds i8, ptr %0, i64 12
  %8 = load i32, ptr %7, align 4
  %9 = add nsw i32 %8, -1
  %10 = sdiv i32 %9, %5
  %11 = icmp sgt i32 %10, -1
  br i1 %11, label %.lr.ph, label %._crit_edge75

.lr.ph:                                           ; preds = %6
  %12 = getelementptr inbounds i8, ptr %0, i64 8
  %13 = icmp sgt i32 %5, 0
  %14 = getelementptr inbounds i8, ptr %0, i64 372
  %15 = getelementptr inbounds i8, ptr %0, i64 280
  %16 = icmp sgt i32 %4, 0
  %or.cond = and i1 %13, %16
  br i1 %or.cond, label %.lr.ph.split.us.split.us.preheader, label %._crit_edge75

.lr.ph.split.us.split.us.preheader:               ; preds = %.lr.ph
  %17 = sext i32 %2 to i64
  %18 = zext nneg i32 %10 to i64
  %19 = sext i32 %3 to i64
  %wide.trip.count = zext nneg i32 %4 to i64
  br label %.lr.ph.split.us.split.us

.lr.ph.split.us.split.us:                         ; preds = %.lr.ph.split.us.split.us.preheader, %._crit_edge.split.us.split.us.us.us
  %indvars.iv99 = phi i64 [ %18, %.lr.ph.split.us.split.us.preheader ], [ %indvars.iv.next100, %._crit_edge.split.us.split.us.us.us ]
  %.05773.us.us.pn = phi i32 [ %8, %.lr.ph.split.us.split.us.preheader ], [ %.05773.us.us, %._crit_edge.split.us.split.us.us.us ]
  %.05773.us.us = sub nsw i32 %.05773.us.us.pn, %5
  %20 = load i32, ptr %12, align 8
  %21 = add nsw i32 %20, -1
  %22 = sdiv i32 %21, %4
  %23 = icmp sgt i32 %22, -1
  br i1 %23, label %.preheader60.lr.ph.us.us, label %._crit_edge.split.us.split.us.us.us

._crit_edge.split.us.split.us.us.us:              ; preds = %._crit_edge63.split.us.us.us.us.us, %.lr.ph.split.us.split.us
  %indvars.iv.next100 = add nsw i64 %indvars.iv99, -1
  %24 = icmp sgt i64 %indvars.iv99, 0
  br i1 %24, label %.lr.ph.split.us.split.us, label %._crit_edge75, !llvm.loop !6

.preheader60.lr.ph.us.us:                         ; preds = %.lr.ph.split.us.split.us
  %25 = mul nsw i64 %indvars.iv99, %19
  %26 = zext nneg i32 %22 to i64
  br label %.preheader60.us.us.us.us

.preheader60.us.us.us.us:                         ; preds = %._crit_edge63.split.us.us.us.us.us, %.preheader60.lr.ph.us.us
  %indvars.iv96 = phi i64 [ %indvars.iv.next97, %._crit_edge63.split.us.us.us.us.us ], [ %26, %.preheader60.lr.ph.us.us ]
  %.pn = phi i32 [ %.05566.us.us.us.us, %._crit_edge63.split.us.us.us.us.us ], [ %20, %.preheader60.lr.ph.us.us ]
  %.05566.us.us.us.us = sub nsw i32 %.pn, %4
  %27 = mul nsw i64 %indvars.iv96, %17
  %28 = add nsw i64 %27, %25
  %29 = getelementptr inbounds i8, ptr %1, i64 %28
  %30 = getelementptr inbounds i32, ptr %1, i64 %28
  br label %.preheader.us.us.us.us.us

.preheader.us.us.us.us.us:                        ; preds = %._crit_edge.us.us.us.us.us, %.preheader60.us.us.us.us
  %.05462.us.us.us.us.us = phi i32 [ 0, %.preheader60.us.us.us.us ], [ %59, %._crit_edge.us.us.us.us.us ]
  %31 = add nsw i32 %.05462.us.us.us.us.us, %.05773.us.us
  %32 = mul nsw i32 %31, %3
  br label %33

33:                                               ; preds = %58, %.preheader.us.us.us.us.us
  %indvars.iv = phi i64 [ %indvars.iv.next, %58 ], [ 0, %.preheader.us.us.us.us.us ]
  %34 = load i8, ptr %14, align 4
  %35 = trunc i8 %34 to i1
  br i1 %35, label %44, label %36

36:                                               ; preds = %33
  %37 = load i8, ptr %29, align 1
  %38 = trunc nuw nsw i64 %indvars.iv to i32
  %39 = add nsw i32 %.05566.us.us.us.us, %38
  %40 = mul nsw i32 %39, %2
  %41 = add nsw i32 %40, %32
  %42 = sext i32 %41 to i64
  %43 = getelementptr inbounds i8, ptr %1, i64 %42
  store i8 %37, ptr %43, align 1
  br label %58

44:                                               ; preds = %33
  %45 = load i32, ptr %15, align 8
  %46 = icmp eq i32 %45, 2
  %47 = trunc nuw nsw i64 %indvars.iv to i32
  %48 = add nsw i32 %.05566.us.us.us.us, %47
  %49 = mul nsw i32 %48, %2
  %50 = add nsw i32 %49, %32
  %51 = sext i32 %50 to i64
  br i1 %46, label %55, label %52

52:                                               ; preds = %44
  %53 = load i32, ptr %30, align 4
  %54 = getelementptr inbounds i32, ptr %1, i64 %51
  store i32 %53, ptr %54, align 4
  br label %58

55:                                               ; preds = %44
  %56 = load float, ptr %30, align 4
  %57 = getelementptr inbounds float, ptr %1, i64 %51
  store float %56, ptr %57, align 4
  br label %58

58:                                               ; preds = %55, %52, %36
  %indvars.iv.next = add nuw nsw i64 %indvars.iv, 1
  %exitcond.not = icmp eq i64 %indvars.iv.next, %wide.trip.count
  br i1 %exitcond.not, label %._crit_edge.us.us.us.us.us, label %33, !llvm.loop !7

._crit_edge.us.us.us.us.us:                       ; preds = %58
  %59 = add nuw nsw i32 %.05462.us.us.us.us.us, 1
  %exitcond95.not = icmp eq i32 %59, %5
  br i1 %exitcond95.not, label %._crit_edge63.split.us.us.us.us.us, label %.preheader.us.us.us.us.us, !llvm.loop !8

._crit_edge63.split.us.us.us.us.us:               ; preds = %._crit_edge.us.us.us.us.us
  %indvars.iv.next97 = add nsw i64 %indvars.iv96, -1
  %60 = icmp sgt i64 %indvars.iv96, 0
  br i1 %60, label %.preheader60.us.us.us.us, label %._crit_edge.split.us.split.us.us.us, !llvm.loop !9

._crit_edge75:                                    ; preds = %._crit_edge.split.us.split.us.us.us, %.lr.ph, %6
  ret void
}